target datalayout = "e-m:e-p270:32:32-p271:32:32-p272:64:64-i64:64-i128:128-f80:128-n8:16:32:64-S128"
target triple = "x86_64-pc-linux-gnu"

; Function Attrs: nounwind uwtable
define void @tls1_set_cert_validity(ptr noundef %0) #1 {
  %2 = alloca ptr, align 8
  store ptr %0, ptr %2, align 8, !tbaa !25
  %3 = load ptr, ptr %2, align 8, !tbaa !25
  %4 = call i32 @tls1_check_chain(ptr noundef %3, ptr noundef null, ptr noundef null, ptr noundef null, i32 noundef 0)
  %5 = load ptr, ptr %2, align 8, !tbaa !25
  %6 = call i32 @tls1_check_chain(ptr noundef %5, ptr noundef null, ptr noundef null, ptr noundef null, i32 noundef 1)
  %7 = load ptr, ptr %2, align 8, !tbaa !25
  %8 = call i32 @tls1_check_chain(ptr noundef %7, ptr noundef null, ptr noundef null, ptr noundef null, i32 noundef 2)
  %9 = load ptr, ptr %2, align 8, !tbaa !25
  %10 = call i32 @tls1_check_chain(ptr noundef %9, ptr noundef null, ptr noundef null, ptr noundef null, i32 noundef 3)
  %11 = load ptr, ptr %2, align 8, !tbaa !25
  %12 = call i32 @tls1_check_chain(ptr noundef %11, ptr noundef null, ptr noundef null, ptr noundef null, i32 noundef 4)
  %13 = load ptr, ptr %2, align 8, !tbaa !25
  %14 = call i32 @tls1_check_chain(ptr noundef %13, ptr noundef null, ptr noundef null, ptr noundef null, i32 noundef 5)
  %15 = load ptr, ptr %2, align 8, !tbaa !25
  %16 = call i32 @tls1_check_chain(ptr noundef %15, ptr noundef null, ptr noundef null, ptr noundef null, i32 noundef 6)
  %17 = load ptr, ptr %2, align 8, !tbaa !25
  %18 = call i32 @tls1_check_chain(ptr noundef %17, ptr noundef null, ptr noundef null, ptr noundef null, i32 noundef 7)
  %19 = load ptr, ptr %2, align 8, !tbaa !25
  %20 = call i32 @tls1_check_chain(ptr noundef %19, ptr noundef null, ptr noundef null, ptr noundef null, i32 noundef 8)
  ret void
}