; Function Attrs: nounwind uwtable
define void @tls1_set_cert_validity(ptr noundef %0) local_unnamed_addr #2 {
  %2 = tail call i32 @tls1_check_chain(ptr noundef %0, ptr noundef null, ptr noundef null, ptr noundef null, i32 noundef 0)
  %3 = tail call i32 @tls1_check_chain(ptr noundef %0, ptr noundef null, ptr noundef null, ptr noundef null, i32 noundef 1)
  %4 = tail call i32 @tls1_check_chain(ptr noundef %0, ptr noundef null, ptr noundef null, ptr noundef null, i32 noundef 2)
  %5 = tail call i32 @tls1_check_chain(ptr noundef %0, ptr noundef null, ptr noundef null, ptr noundef null, i32 noundef 3)
  %6 = tail call i32 @tls1_check_chain(ptr noundef %0, ptr noundef null, ptr noundef null, ptr noundef null, i32 noundef 4)
  %7 = tail call i32 @tls1_check_chain(ptr noundef %0, ptr noundef null, ptr noundef null, ptr noundef null, i32 noundef 5)
  %8 = tail call i32 @tls1_check_chain(ptr noundef %0, ptr noundef null, ptr noundef null, ptr noundef null, i32 noundef 6)
  %9 = tail call i32 @tls1_check_chain(ptr noundef %0, ptr noundef null, ptr noundef null, ptr noundef null, i32 noundef 7)
  %10 = tail call i32 @tls1_check_chain(ptr noundef %0, ptr noundef null, ptr noundef null, ptr noundef null, i32 noundef 8)
  ret void
}